---
triple:          'arm64-apple-darwin'
binary-path:     '/Users/kaiheng/Documents/C++/queenchessattack/main'
relocations:
  - { offsetInCU: 0x4F02, offset: 0x4F02, size: 0x8, addend: 0x0, symName: __ZNSt3__124__put_character_sequenceB8ue170006IcNS_11char_traitsIcEEEERNS_13basic_ostreamIT_T0_EES7_PKS4_m, symObjAddr: 0x3838, symBinAddr: 0x1000062A4, symSize: 0x1EC }
  - { offsetInCU: 0x870E, offset: 0x870E, size: 0x8, addend: 0x0, symName: __ZNSt3__14endlB8ue170006IcNS_11char_traitsIcEEEERNS_13basic_ostreamIT_T0_EES7_, symObjAddr: 0xE14, symBinAddr: 0x100003880, symSize: 0x58 }
  - { offsetInCU: 0x874E, offset: 0x874E, size: 0x8, addend: 0x0, symName: __ZNSt3__1lsB8ue170006INS_11char_traitsIcEEEERNS_13basic_ostreamIcT_EES6_c, symObjAddr: 0xE6C, symBinAddr: 0x1000038D8, symSize: 0x34 }
  - { offsetInCU: 0x8794, offset: 0x8794, size: 0x8, addend: 0x0, symName: __ZNSt3__1lsB8ue170006INS_11char_traitsIcEEEERNS_13basic_ostreamIcT_EES6_PKc, symObjAddr: 0xEA0, symBinAddr: 0x10000390C, symSize: 0x48 }
  - { offsetInCU: 0x87DA, offset: 0x87DA, size: 0x8, addend: 0x0, symName: __ZNSt3__122__make_exception_guardB8ue170006INS_6vectorIcNS_9allocatorIcEEE16__destroy_vectorEEENS_28__exception_guard_exceptionsIT_EES7_, symObjAddr: 0x1120, symBinAddr: 0x100003B8C, symSize: 0x40 }
  - { offsetInCU: 0x880F, offset: 0x880F, size: 0x8, addend: 0x0, symName: __ZNSt3__119__allocate_at_leastB8ue170006INS_9allocatorIcEEEENS_19__allocation_resultINS_16allocator_traitsIT_E7pointerEEERS5_m, symObjAddr: 0x1514, symBinAddr: 0x100003F80, symSize: 0x40 }
  - { offsetInCU: 0x8852, offset: 0x8852, size: 0x8, addend: 0x0, symName: __ZNSt3__13minB8ue170006ImEERKT_S3_S3_, symObjAddr: 0x1650, symBinAddr: 0x1000040BC, symSize: 0x2C }
  - { offsetInCU: 0x8A7F, offset: 0x8A7F, size: 0x8, addend: 0x0, symName: __ZNSt3__13minB8ue170006ImNS_6__lessIvvEEEERKT_S5_S5_T0_, symObjAddr: 0x16E8, symBinAddr: 0x100004154, symSize: 0x54 }
  - { offsetInCU: 0x8B1E, offset: 0x8B1E, size: 0x8, addend: 0x0, symName: __ZNSt3__120__throw_length_errorB8ue170006EPKc, symObjAddr: 0x17C4, symBinAddr: 0x100004230, symSize: 0x64 }
  - { offsetInCU: 0x8B48, offset: 0x8B48, size: 0x8, addend: 0x0, symName: __ZNSt3__117__libcpp_allocateB8ue170006Emm, symObjAddr: 0x1934, symBinAddr: 0x1000043A0, symSize: 0x60 }
  - { offsetInCU: 0x8BA2, offset: 0x8BA2, size: 0x8, addend: 0x0, symName: __ZNSt3__124__is_overaligned_for_newB8ue170006Em, symObjAddr: 0x1994, symBinAddr: 0x100004400, symSize: 0x20 }
  - { offsetInCU: 0x8BD0, offset: 0x8BD0, size: 0x8, addend: 0x0, symName: __ZNSt3__121__libcpp_operator_newB8ue170006IJmSt11align_val_tEEEPvDpT_, symObjAddr: 0x19B4, symBinAddr: 0x100004420, symSize: 0x2C }
  - { offsetInCU: 0x8C1D, offset: 0x8C1D, size: 0x8, addend: 0x0, symName: __ZNSt3__121__libcpp_operator_newB8ue170006IJmEEEPvDpT_, symObjAddr: 0x19E0, symBinAddr: 0x10000444C, symSize: 0x24 }
  - { offsetInCU: 0x8C56, offset: 0x8C56, size: 0x8, addend: 0x0, symName: __ZNSt3__112__to_addressB8ue170006IcEEPT_S2_, symObjAddr: 0x1AF4, symBinAddr: 0x100004560, symSize: 0x14 }
  - { offsetInCU: 0x8C8B, offset: 0x8C8B, size: 0x8, addend: 0x0, symName: __ZNSt3__119__libcpp_deallocateB8ue170006EPvmm, symObjAddr: 0x1FB0, symBinAddr: 0x100004A1C, symSize: 0x60 }
  - { offsetInCU: 0x8CF0, offset: 0x8CF0, size: 0x8, addend: 0x0, symName: __ZNSt3__127__do_deallocate_handle_sizeB8ue170006IJSt11align_val_tEEEvPvmDpT_, symObjAddr: 0x2010, symBinAddr: 0x100004A7C, symSize: 0x30 }
  - { offsetInCU: 0x8D43, offset: 0x8D43, size: 0x8, addend: 0x0, symName: __ZNSt3__127__do_deallocate_handle_sizeB8ue170006IJEEEvPvmDpT_, symObjAddr: 0x2040, symBinAddr: 0x100004AAC, symSize: 0x28 }
  - { offsetInCU: 0x8D81, offset: 0x8D81, size: 0x8, addend: 0x0, symName: __ZNSt3__124__libcpp_operator_deleteB8ue170006IJPvSt11align_val_tEEEvDpT_, symObjAddr: 0x2068, symBinAddr: 0x100004AD4, symSize: 0x2C }
  - { offsetInCU: 0x8DCA, offset: 0x8DCA, size: 0x8, addend: 0x0, symName: __ZNSt3__124__libcpp_operator_deleteB8ue170006IJPvEEEvDpT_, symObjAddr: 0x2094, symBinAddr: 0x100004B00, symSize: 0x24 }
  - { offsetInCU: 0x8DFF, offset: 0x8DFF, size: 0x8, addend: 0x0, symName: __ZNSt3__122__make_exception_guardB8ue170006INS_6vectorINS1_IcNS_9allocatorIcEEEENS2_IS4_EEE16__destroy_vectorEEENS_28__exception_guard_exceptionsIT_EES9_, symObjAddr: 0x2210, symBinAddr: 0x100004C7C, symSize: 0x40 }
  - { offsetInCU: 0x8E34, offset: 0x8E34, size: 0x8, addend: 0x0, symName: __ZNSt3__119__allocate_at_leastB8ue170006INS_9allocatorINS_6vectorIcNS1_IcEEEEEEEENS_19__allocation_resultINS_16allocator_traitsIT_E7pointerEEERS8_m, symObjAddr: 0x260C, symBinAddr: 0x100005078, symSize: 0x40 }
  - { offsetInCU: 0x8E77, offset: 0x8E77, size: 0x8, addend: 0x0, symName: __ZNSt3__112__to_addressB8ue170006INS_6vectorIcNS_9allocatorIcEEEEEEPT_S6_, symObjAddr: 0x2954, symBinAddr: 0x1000053C0, symSize: 0x14 }
  - { offsetInCU: 0x8EAC, offset: 0x8EAC, size: 0x8, addend: 0x0, symName: __ZNSt3__130__uninitialized_allocator_copyB8ue170006INS_9allocatorIcEEPcS3_S3_EET2_RT_T0_T1_S4_, symObjAddr: 0x2D94, symBinAddr: 0x100005800, symSize: 0x80 }
  - { offsetInCU: 0x8F49, offset: 0x8F49, size: 0x8, addend: 0x0, symName: __ZNSt3__114__unwrap_rangeB8ue170006IPcS1_EENS_4pairIT0_S3_EET_S5_, symObjAddr: 0x2E14, symBinAddr: 0x100005880, symSize: 0x60 }
  - { offsetInCU: 0x8F95, offset: 0x8F95, size: 0x8, addend: 0x0, symName: __ZNSt3__135__uninitialized_allocator_copy_implB8ue170006INS_9allocatorIcEEcccLPv0EEEPT2_RT_PT0_S9_S5_, symObjAddr: 0x2E74, symBinAddr: 0x1000058E0, symSize: 0x38 }
  - { offsetInCU: 0x9016, offset: 0x9016, size: 0x8, addend: 0x0, symName: __ZNSt3__113__unwrap_iterB8ue170006IPcNS_18__unwrap_iter_implIS1_Lb1EEELi0EEEDTclsrT0_8__unwrapclsr3stdE7declvalIT_EEEES5_, symObjAddr: 0x2EAC, symBinAddr: 0x100005918, symSize: 0x24 }
  - { offsetInCU: 0x905A, offset: 0x905A, size: 0x8, addend: 0x0, symName: __ZNSt3__113__rewrap_iterB8ue170006IPcS1_NS_18__unwrap_iter_implIS1_Lb1EEEEET_S4_T0_, symObjAddr: 0x2ED0, symBinAddr: 0x10000593C, symSize: 0x3C }
  - { offsetInCU: 0x90AF, offset: 0x90AF, size: 0x8, addend: 0x0, symName: __ZNSt3__19make_pairB8ue170006IPcS1_EENS_4pairINS_18__unwrap_ref_decayIT_E4typeENS3_IT0_E4typeEEEOS4_OS7_, symObjAddr: 0x2F0C, symBinAddr: 0x100005978, symSize: 0x38 }
  - { offsetInCU: 0x9201, offset: 0x9201, size: 0x8, addend: 0x0, symName: __ZNSt3__14copyB8ue170006IPcS1_EET0_T_S3_S2_, symObjAddr: 0x2FB4, symBinAddr: 0x100005A20, symSize: 0x40 }
  - { offsetInCU: 0x925B, offset: 0x925B, size: 0x8, addend: 0x0, symName: __ZNSt3__16__copyB8ue170006INS_17_ClassicAlgPolicyEPcS2_S2_EENS_4pairIT0_T2_EES4_T1_S5_, symObjAddr: 0x2FF4, symBinAddr: 0x100005A60, symSize: 0x44 }
  - { offsetInCU: 0x92C7, offset: 0x92C7, size: 0x8, addend: 0x0, symName: __ZNSt3__123__dispatch_copy_or_moveB8ue170006INS_17_ClassicAlgPolicyENS_11__copy_loopIS1_EENS_14__copy_trivialEPcS5_S5_EENS_4pairIT2_T4_EES7_T3_S8_, symObjAddr: 0x3038, symBinAddr: 0x100005AA4, symSize: 0x44 }
  - { offsetInCU: 0x9345, offset: 0x9345, size: 0x8, addend: 0x0, symName: __ZNSt3__121__unwrap_and_dispatchB8ue170006INS_10__overloadINS_11__copy_loopINS_17_ClassicAlgPolicyEEENS_14__copy_trivialEEEPcS7_S7_Li0EEENS_4pairIT0_T2_EES9_T1_SA_, symObjAddr: 0x307C, symBinAddr: 0x100005AE8, symSize: 0xB4 }
  - { offsetInCU: 0x9419, offset: 0x9419, size: 0x8, addend: 0x0, symName: __ZNSt3__114__rewrap_rangeB8ue170006IPcS1_EET_S2_T0_, symObjAddr: 0x3178, symBinAddr: 0x100005BE4, symSize: 0x2C }
  - { offsetInCU: 0x9465, offset: 0x9465, size: 0x8, addend: 0x0, symName: __ZNSt3__119__copy_trivial_implB8ue170006IccEENS_4pairIPT_PT0_EES3_S3_S5_, symObjAddr: 0x31A4, symBinAddr: 0x100005C10, symSize: 0x78 }
  - { offsetInCU: 0x94CD, offset: 0x94CD, size: 0x8, addend: 0x0, symName: __ZNSt3__119__constexpr_memmoveB8ue170006IccLi0EEEPT_S2_PT0_NS_15__element_countE, symObjAddr: 0x321C, symBinAddr: 0x100005C88, symSize: 0x64 }
  - { offsetInCU: 0x953B, offset: 0x953B, size: 0x8, addend: 0x0, symName: __ZNSt3__19make_pairB8ue170006IRPcS1_EENS_4pairINS_18__unwrap_ref_decayIT_E4typeENS4_IT0_E4typeEEEOS5_OS8_, symObjAddr: 0x3280, symBinAddr: 0x100005CEC, symSize: 0x38 }
  - { offsetInCU: 0x95DD, offset: 0x95DD, size: 0x8, addend: 0x0, symName: __ZNSt3__19use_facetB8ue170006INS_5ctypeIcEEEERKT_RKNS_6localeE, symObjAddr: 0x37D4, symBinAddr: 0x100006240, symSize: 0x2C }
  - { offsetInCU: 0x9AAA, offset: 0x9AAA, size: 0x8, addend: 0x0, symName: __ZNSt3__116__pad_and_outputB8ue170006IcNS_11char_traitsIcEEEENS_19ostreambuf_iteratorIT_T0_EES6_PKS4_S8_S8_RNS_8ios_baseES4_, symObjAddr: 0x3A40, symBinAddr: 0x1000064AC, symSize: 0x240 }
  - { offsetInCU: 0x9BAC, offset: 0x9BAC, size: 0x8, addend: 0x0, symName: __ZNSt3__118__constexpr_strlenB8ue170006EPKc, symObjAddr: 0x41C4, symBinAddr: 0x100006C30, symSize: 0x24 }
  - { offsetInCU: 0x9BD8, offset: 0x9BD8, size: 0x8, addend: 0x0, symName: __ZNSt3__112__to_addressB8ue170006INS_6vectorIiNS_9allocatorIiEEEEEEPT_S6_, symObjAddr: 0x46B0, symBinAddr: 0x10000711C, symSize: 0x14 }
  - { offsetInCU: 0x9C0D, offset: 0x9C0D, size: 0x8, addend: 0x0, symName: __ZNSt3__112__to_addressB8ue170006IiEEPT_S2_, symObjAddr: 0x4A74, symBinAddr: 0x1000074E0, symSize: 0x14 }
  - { offsetInCU: 0xA01E, offset: 0xA01E, size: 0x8, addend: 0x0, symName: __ZSt28__throw_bad_array_new_lengthB8ue170006v, symObjAddr: 0x1900, symBinAddr: 0x10000436C, symSize: 0x34 }
  - { offsetInCU: 0xCAF6, offset: 0xCAF6, size: 0x8, addend: 0x0, symName: __Z12queensAttackiiiiNSt3__16vectorINS0_IiNS_9allocatorIiEEEENS1_IS3_EEEE, symObjAddr: 0x0, symBinAddr: 0x100002A6C, symSize: 0xCA4 }
  - { offsetInCU: 0xCCFF, offset: 0xCCFF, size: 0x8, addend: 0x0, symName: __ZNSt3__16vectorIcNS_9allocatorIcEEEC1EmRKc, symObjAddr: 0xCA4, symBinAddr: 0x100003710, symSize: 0x3C }
  - { offsetInCU: 0xCD49, offset: 0xCD49, size: 0x8, addend: 0x0, symName: __ZNSt3__16vectorINS0_IcNS_9allocatorIcEEEENS1_IS3_EEEC1EmRKS3_, symObjAddr: 0xCE0, symBinAddr: 0x10000374C, symSize: 0x3C }
  - { offsetInCU: 0xCD93, offset: 0xCD93, size: 0x8, addend: 0x0, symName: __ZNSt3__16vectorIcNS_9allocatorIcEEED1B8ue170006Ev, symObjAddr: 0xD1C, symBinAddr: 0x100003788, symSize: 0x2C }
  - { offsetInCU: 0xCDBD, offset: 0xCDBD, size: 0x8, addend: 0x0, symName: __ZNSt3__16vectorINS0_IcNS_9allocatorIcEEEENS1_IS3_EEEixB8ue170006Em, symObjAddr: 0xD48, symBinAddr: 0x1000037B4, symSize: 0x2C }
  - { offsetInCU: 0xCDF4, offset: 0xCDF4, size: 0x8, addend: 0x0, symName: __ZNSt3__16vectorIcNS_9allocatorIcEEEixB8ue170006Em, symObjAddr: 0xD74, symBinAddr: 0x1000037E0, symSize: 0x24 }
  - { offsetInCU: 0xCE2B, offset: 0xCE2B, size: 0x8, addend: 0x0, symName: __ZNSt3__16vectorINS0_IiNS_9allocatorIiEEEENS1_IS3_EEEixB8ue170006Em, symObjAddr: 0xD98, symBinAddr: 0x100003804, symSize: 0x2C }
  - { offsetInCU: 0xCE62, offset: 0xCE62, size: 0x8, addend: 0x0, symName: __ZNSt3__16vectorIiNS_9allocatorIiEEEixB8ue170006Em, symObjAddr: 0xDC4, symBinAddr: 0x100003830, symSize: 0x24 }
  - { offsetInCU: 0xCE99, offset: 0xCE99, size: 0x8, addend: 0x0, symName: __ZNSt3__113basic_ostreamIcNS_11char_traitsIcEEElsB8ue170006EPFRS3_S4_E, symObjAddr: 0xDE8, symBinAddr: 0x100003854, symSize: 0x2C }
  - { offsetInCU: 0xCECD, offset: 0xCECD, size: 0x8, addend: 0x0, symName: __ZNSt3__16vectorINS0_IcNS_9allocatorIcEEEENS1_IS3_EEED1B8ue170006Ev, symObjAddr: 0xEE8, symBinAddr: 0x100003954, symSize: 0x2C }
  - { offsetInCU: 0xCEF7, offset: 0xCEF7, size: 0x8, addend: 0x0, symName: _main, symObjAddr: 0xF14, symBinAddr: 0x100003980, symSize: 0x9C }
  - { offsetInCU: 0xCF11, offset: 0xCF11, size: 0x8, addend: 0x0, symName: __ZNSt3__16vectorINS0_IiNS_9allocatorIiEEEENS1_IS3_EEEC1B8ue170006Ev, symObjAddr: 0xFB0, symBinAddr: 0x100003A1C, symSize: 0x2C }
  - { offsetInCU: 0xCF3B, offset: 0xCF3B, size: 0x8, addend: 0x0, symName: __ZNSt3__16vectorINS0_IiNS_9allocatorIiEEEENS1_IS3_EEED1B8ue170006Ev, symObjAddr: 0xFDC, symBinAddr: 0x100003A48, symSize: 0x2C }
  - { offsetInCU: 0xCF65, offset: 0xCF65, size: 0x8, addend: 0x0, symName: __ZNSt3__16vectorIcNS_9allocatorIcEEEC2EmRKc, symObjAddr: 0x1008, symBinAddr: 0x100003A74, symSize: 0xDC }
  - { offsetInCU: 0xCFCE, offset: 0xCFCE, size: 0x8, addend: 0x0, symName: __ZNSt3__117__compressed_pairIPcNS_9allocatorIcEEEC1B8ue170006IDnNS_18__default_init_tagEEEOT_OT0_, symObjAddr: 0x10E4, symBinAddr: 0x100003B50, symSize: 0x3C }
  - { offsetInCU: 0xD026, offset: 0xD026, size: 0x8, addend: 0x0, symName: __ZNSt3__16vectorIcNS_9allocatorIcEEE16__destroy_vectorC1B8ue170006ERS3_, symObjAddr: 0x1160, symBinAddr: 0x100003BCC, symSize: 0x34 }
  - { offsetInCU: 0xD05F, offset: 0xD05F, size: 0x8, addend: 0x0, symName: __ZNSt3__16vectorIcNS_9allocatorIcEEE11__vallocateB8ue170006Em, symObjAddr: 0x1194, symBinAddr: 0x100003C00, symSize: 0xAC }
  - { offsetInCU: 0xD0A3, offset: 0xD0A3, size: 0x8, addend: 0x0, symName: __ZNSt3__16vectorIcNS_9allocatorIcEEE18__construct_at_endEmRKc, symObjAddr: 0x1240, symBinAddr: 0x100003CAC, symSize: 0xD0 }
  - { offsetInCU: 0xD124, offset: 0xD124, size: 0x8, addend: 0x0, symName: __ZNSt3__128__exception_guard_exceptionsINS_6vectorIcNS_9allocatorIcEEE16__destroy_vectorEE10__completeB8ue170006Ev, symObjAddr: 0x1310, symBinAddr: 0x100003D7C, symSize: 0x1C }
  - { offsetInCU: 0xD14A, offset: 0xD14A, size: 0x8, addend: 0x0, symName: __ZNSt3__128__exception_guard_exceptionsINS_6vectorIcNS_9allocatorIcEEE16__destroy_vectorEED1B8ue170006Ev, symObjAddr: 0x132C, symBinAddr: 0x100003D98, symSize: 0x2C }
  - { offsetInCU: 0xD174, offset: 0xD174, size: 0x8, addend: 0x0, symName: __ZNSt3__117__compressed_pairIPcNS_9allocatorIcEEEC2B8ue170006IDnNS_18__default_init_tagEEEOT_OT0_, symObjAddr: 0x1358, symBinAddr: 0x100003DC4, symSize: 0x40 }
  - { offsetInCU: 0xD1CC, offset: 0xD1CC, size: 0x8, addend: 0x0, symName: __ZNSt3__122__compressed_pair_elemIPcLi0ELb0EEC2B8ue170006IDnvEEOT_, symObjAddr: 0x1398, symBinAddr: 0x100003E04, symSize: 0x1C }
  - { offsetInCU: 0xD20E, offset: 0xD20E, size: 0x8, addend: 0x0, symName: __ZNSt3__122__compressed_pair_elemINS_9allocatorIcEELi1ELb1EEC2B8ue170006ENS_18__default_init_tagE, symObjAddr: 0x13B4, symBinAddr: 0x100003E20, symSize: 0x2C }
  - { offsetInCU: 0xD243, offset: 0xD243, size: 0x8, addend: 0x0, symName: __ZNSt3__19allocatorIcEC2B8ue170006Ev, symObjAddr: 0x13E0, symBinAddr: 0x100003E4C, symSize: 0x2C }
  - { offsetInCU: 0xD26D, offset: 0xD26D, size: 0x8, addend: 0x0, symName: __ZNSt3__116__non_trivial_ifILb1ENS_9allocatorIcEEEC2B8ue170006Ev, symObjAddr: 0x140C, symBinAddr: 0x100003E78, symSize: 0x14 }
  - { offsetInCU: 0xD297, offset: 0xD297, size: 0x8, addend: 0x0, symName: __ZNSt3__128__exception_guard_exceptionsINS_6vectorIcNS_9allocatorIcEEE16__destroy_vectorEEC1B8ue170006ES5_, symObjAddr: 0x1420, symBinAddr: 0x100003E8C, symSize: 0x34 }
  - { offsetInCU: 0xD2CF, offset: 0xD2CF, size: 0x8, addend: 0x0, symName: __ZNSt3__128__exception_guard_exceptionsINS_6vectorIcNS_9allocatorIcEEE16__destroy_vectorEEC2B8ue170006ES5_, symObjAddr: 0x1454, symBinAddr: 0x100003EC0, symSize: 0x24 }
  - { offsetInCU: 0xD307, offset: 0xD307, size: 0x8, addend: 0x0, symName: __ZNSt3__16vectorIcNS_9allocatorIcEEE16__destroy_vectorC2B8ue170006ERS3_, symObjAddr: 0x1478, symBinAddr: 0x100003EE4, symSize: 0x20 }
  - { offsetInCU: 0xD340, offset: 0xD340, size: 0x8, addend: 0x0, symName: __ZNKSt3__16vectorIcNS_9allocatorIcEEE8max_sizeEv, symObjAddr: 0x1498, symBinAddr: 0x100003F04, symSize: 0x60 }
  - { offsetInCU: 0xD368, offset: 0xD368, size: 0x8, addend: 0x0, symName: __ZNKSt3__16vectorIcNS_9allocatorIcEEE20__throw_length_errorB8ue170006Ev, symObjAddr: 0x14F8, symBinAddr: 0x100003F64, symSize: 0x1C }
  - { offsetInCU: 0xD38E, offset: 0xD38E, size: 0x8, addend: 0x0, symName: __ZNSt3__16vectorIcNS_9allocatorIcEEE7__allocB8ue170006Ev, symObjAddr: 0x1554, symBinAddr: 0x100003FC0, symSize: 0x28 }
  - { offsetInCU: 0xD3B4, offset: 0xD3B4, size: 0x8, addend: 0x0, symName: __ZNSt3__16vectorIcNS_9allocatorIcEEE9__end_capB8ue170006Ev, symObjAddr: 0x157C, symBinAddr: 0x100003FE8, symSize: 0x28 }
  - { offsetInCU: 0xD3DA, offset: 0xD3DA, size: 0x8, addend: 0x0, symName: __ZNKSt3__16vectorIcNS_9allocatorIcEEE14__annotate_newB8ue170006Em, symObjAddr: 0x15A4, symBinAddr: 0x100004010, symSize: 0xAC }
  - { offsetInCU: 0xD419, offset: 0xD419, size: 0x8, addend: 0x0, symName: __ZNSt3__116allocator_traitsINS_9allocatorIcEEE8max_sizeB8ue170006IS2_vEEmRKS2_, symObjAddr: 0x167C, symBinAddr: 0x1000040E8, symSize: 0x24 }
  - { offsetInCU: 0xD447, offset: 0xD447, size: 0x8, addend: 0x0, symName: __ZNKSt3__16vectorIcNS_9allocatorIcEEE7__allocB8ue170006Ev, symObjAddr: 0x16A0, symBinAddr: 0x10000410C, symSize: 0x28 }
  - { offsetInCU: 0xD46D, offset: 0xD46D, size: 0x8, addend: 0x0, symName: __ZNSt3__114numeric_limitsIlE3maxB8ue170006Ev, symObjAddr: 0x16C8, symBinAddr: 0x100004134, symSize: 0x14 }
  - { offsetInCU: 0xD495, offset: 0xD495, size: 0x8, addend: 0x0, symName: __ZNKSt3__16__lessIvvEclB8ue170006ImmEEbRKT_RKT0_, symObjAddr: 0x173C, symBinAddr: 0x1000041A8, symSize: 0x34 }
  - { offsetInCU: 0xD4E9, offset: 0xD4E9, size: 0x8, addend: 0x0, symName: __ZNKSt3__19allocatorIcE8max_sizeB8ue170006Ev, symObjAddr: 0x1770, symBinAddr: 0x1000041DC, symSize: 0x14 }
  - { offsetInCU: 0xD50F, offset: 0xD50F, size: 0x8, addend: 0x0, symName: __ZNKSt3__117__compressed_pairIPcNS_9allocatorIcEEE6secondB8ue170006Ev, symObjAddr: 0x1784, symBinAddr: 0x1000041F0, symSize: 0x24 }
  - { offsetInCU: 0xD535, offset: 0xD535, size: 0x8, addend: 0x0, symName: __ZNKSt3__122__compressed_pair_elemINS_9allocatorIcEELi1ELb1EE5__getB8ue170006Ev, symObjAddr: 0x17A8, symBinAddr: 0x100004214, symSize: 0x14 }
  - { offsetInCU: 0xD55B, offset: 0xD55B, size: 0x8, addend: 0x0, symName: __ZNSt3__123__libcpp_numeric_limitsIlLb1EE3maxB8ue170006Ev, symObjAddr: 0x17BC, symBinAddr: 0x100004228, symSize: 0x8 }
  - { offsetInCU: 0xD56F, offset: 0xD56F, size: 0x8, addend: 0x0, symName: __ZNSt12length_errorC1B8ue170006EPKc, symObjAddr: 0x1828, symBinAddr: 0x100004294, symSize: 0x34 }
  - { offsetInCU: 0xD5A7, offset: 0xD5A7, size: 0x8, addend: 0x0, symName: __ZNSt12length_errorC2B8ue170006EPKc, symObjAddr: 0x185C, symBinAddr: 0x1000042C8, symSize: 0x4C }
  - { offsetInCU: 0xD5DF, offset: 0xD5DF, size: 0x8, addend: 0x0, symName: __ZNSt3__19allocatorIcE8allocateB8ue170006Em, symObjAddr: 0x18A8, symBinAddr: 0x100004314, symSize: 0x58 }
  - { offsetInCU: 0xD613, offset: 0xD613, size: 0x8, addend: 0x0, symName: __ZNSt3__117__compressed_pairIPcNS_9allocatorIcEEE6secondB8ue170006Ev, symObjAddr: 0x1A04, symBinAddr: 0x100004470, symSize: 0x24 }
  - { offsetInCU: 0xD639, offset: 0xD639, size: 0x8, addend: 0x0, symName: __ZNSt3__122__compressed_pair_elemINS_9allocatorIcEELi1ELb1EE5__getB8ue170006Ev, symObjAddr: 0x1A28, symBinAddr: 0x100004494, symSize: 0x14 }
  - { offsetInCU: 0xD65F, offset: 0xD65F, size: 0x8, addend: 0x0, symName: __ZNSt3__117__compressed_pairIPcNS_9allocatorIcEEE5firstB8ue170006Ev, symObjAddr: 0x1A3C, symBinAddr: 0x1000044A8, symSize: 0x24 }
  - { offsetInCU: 0xD685, offset: 0xD685, size: 0x8, addend: 0x0, symName: __ZNSt3__122__compressed_pair_elemIPcLi0ELb0EE5__getB8ue170006Ev, symObjAddr: 0x1A60, symBinAddr: 0x1000044CC, symSize: 0x14 }
  - { offsetInCU: 0xD6AB, offset: 0xD6AB, size: 0x8, addend: 0x0, symName: __ZNKSt3__16vectorIcNS_9allocatorIcEEE31__annotate_contiguous_containerB8ue170006EPKvS5_S5_S5_, symObjAddr: 0x1A74, symBinAddr: 0x1000044E0, symSize: 0x20 }
  - { offsetInCU: 0xD6FD, offset: 0xD6FD, size: 0x8, addend: 0x0, symName: __ZNKSt3__16vectorIcNS_9allocatorIcEEE4dataB8ue170006Ev, symObjAddr: 0x1A94, symBinAddr: 0x100004500, symSize: 0x28 }
  - { offsetInCU: 0xD723, offset: 0xD723, size: 0x8, addend: 0x0, symName: __ZNKSt3__16vectorIcNS_9allocatorIcEEE8capacityB8ue170006Ev, symObjAddr: 0x1ABC, symBinAddr: 0x100004528, symSize: 0x38 }
  - { offsetInCU: 0xD749, offset: 0xD749, size: 0x8, addend: 0x0, symName: __ZNKSt3__16vectorIcNS_9allocatorIcEEE9__end_capB8ue170006Ev, symObjAddr: 0x1B08, symBinAddr: 0x100004574, symSize: 0x28 }
  - { offsetInCU: 0xD76F, offset: 0xD76F, size: 0x8, addend: 0x0, symName: __ZNKSt3__117__compressed_pairIPcNS_9allocatorIcEEE5firstB8ue170006Ev, symObjAddr: 0x1B30, symBinAddr: 0x10000459C, symSize: 0x24 }
  - { offsetInCU: 0xD795, offset: 0xD795, size: 0x8, addend: 0x0, symName: __ZNKSt3__122__compressed_pair_elemIPcLi0ELb0EE5__getB8ue170006Ev, symObjAddr: 0x1B54, symBinAddr: 0x1000045C0, symSize: 0x14 }
  - { offsetInCU: 0xD7D4, offset: 0xD7D4, size: 0x8, addend: 0x0, symName: __ZNSt3__16vectorIcNS_9allocatorIcEEE21_ConstructTransactionC1B8ue170006ERS3_m, symObjAddr: 0x1B68, symBinAddr: 0x1000045D4, symSize: 0x3C }
  - { offsetInCU: 0xD81C, offset: 0xD81C, size: 0x8, addend: 0x0, symName: __ZNSt3__116allocator_traitsINS_9allocatorIcEEE9constructB8ue170006IcJRKcEvEEvRS2_PT_DpOT0_, symObjAddr: 0x1BA4, symBinAddr: 0x100004610, symSize: 0x34 }
  - { offsetInCU: 0xD873, offset: 0xD873, size: 0x8, addend: 0x0, symName: __ZNSt3__16vectorIcNS_9allocatorIcEEE21_ConstructTransactionD1B8ue170006Ev, symObjAddr: 0x1BD8, symBinAddr: 0x100004644, symSize: 0x2C }
  - { offsetInCU: 0xD89D, offset: 0xD89D, size: 0x8, addend: 0x0, symName: __ZNSt3__16vectorIcNS_9allocatorIcEEE21_ConstructTransactionC2B8ue170006ERS3_m, symObjAddr: 0x1C04, symBinAddr: 0x100004670, symSize: 0x44 }
  - { offsetInCU: 0xD8E5, offset: 0xD8E5, size: 0x8, addend: 0x0, symName: __ZNSt3__19allocatorIcE9constructB8ue170006IcJRKcEEEvPT_DpOT0_, symObjAddr: 0x1C48, symBinAddr: 0x1000046B4, symSize: 0x28 }
  - { offsetInCU: 0xD93B, offset: 0xD93B, size: 0x8, addend: 0x0, symName: __ZNSt3__16vectorIcNS_9allocatorIcEEE21_ConstructTransactionD2B8ue170006Ev, symObjAddr: 0x1C70, symBinAddr: 0x1000046DC, symSize: 0x20 }
  - { offsetInCU: 0xD965, offset: 0xD965, size: 0x8, addend: 0x0, symName: __ZNSt3__128__exception_guard_exceptionsINS_6vectorIcNS_9allocatorIcEEE16__destroy_vectorEED2B8ue170006Ev, symObjAddr: 0x1C90, symBinAddr: 0x1000046FC, symSize: 0x50 }
  - { offsetInCU: 0xD98F, offset: 0xD98F, size: 0x8, addend: 0x0, symName: __ZNSt3__16vectorIcNS_9allocatorIcEEE16__destroy_vectorclB8ue170006Ev, symObjAddr: 0x1CE0, symBinAddr: 0x10000474C, symSize: 0x90 }
  - { offsetInCU: 0xD9B5, offset: 0xD9B5, size: 0x8, addend: 0x0, symName: __ZNSt3__16vectorIcNS_9allocatorIcEEE7__clearB8ue170006Ev, symObjAddr: 0x1D70, symBinAddr: 0x1000047DC, symSize: 0x28 }
  - { offsetInCU: 0xD9DB, offset: 0xD9DB, size: 0x8, addend: 0x0, symName: __ZNKSt3__16vectorIcNS_9allocatorIcEEE17__annotate_deleteB8ue170006Ev, symObjAddr: 0x1D98, symBinAddr: 0x100004804, symSize: 0xB8 }
  - { offsetInCU: 0xDA01, offset: 0xDA01, size: 0x8, addend: 0x0, symName: __ZNSt3__116allocator_traitsINS_9allocatorIcEEE10deallocateB8ue170006ERS2_Pcm, symObjAddr: 0x1E50, symBinAddr: 0x1000048BC, symSize: 0x34 }
  - { offsetInCU: 0xDA43, offset: 0xDA43, size: 0x8, addend: 0x0, symName: __ZNSt3__16vectorIcNS_9allocatorIcEEE22__base_destruct_at_endB8ue170006EPc, symObjAddr: 0x1E84, symBinAddr: 0x1000048F0, symSize: 0x8C }
  - { offsetInCU: 0xDA87, offset: 0xDA87, size: 0x8, addend: 0x0, symName: __ZNSt3__116allocator_traitsINS_9allocatorIcEEE7destroyB8ue170006IcvEEvRS2_PT_, symObjAddr: 0x1F10, symBinAddr: 0x10000497C, symSize: 0x2C }
  - { offsetInCU: 0xDAC4, offset: 0xDAC4, size: 0x8, addend: 0x0, symName: __ZNSt3__19allocatorIcE7destroyB8ue170006EPc, symObjAddr: 0x1F3C, symBinAddr: 0x1000049A8, symSize: 0x14 }
  - { offsetInCU: 0xDAF8, offset: 0xDAF8, size: 0x8, addend: 0x0, symName: __ZNKSt3__16vectorIcNS_9allocatorIcEEE4sizeB8ue170006Ev, symObjAddr: 0x1F50, symBinAddr: 0x1000049BC, symSize: 0x20 }
  - { offsetInCU: 0xDB1E, offset: 0xDB1E, size: 0x8, addend: 0x0, symName: __ZNSt3__19allocatorIcE10deallocateB8ue170006EPcm, symObjAddr: 0x1F70, symBinAddr: 0x1000049DC, symSize: 0x40 }
  - { offsetInCU: 0xDB60, offset: 0xDB60, size: 0x8, addend: 0x0, symName: __ZNSt3__16vectorIcNS_9allocatorIcEEED2B8ue170006Ev, symObjAddr: 0x20B8, symBinAddr: 0x100004B24, symSize: 0x40 }
  - { offsetInCU: 0xDB8A, offset: 0xDB8A, size: 0x8, addend: 0x0, symName: __ZNSt3__16vectorINS0_IcNS_9allocatorIcEEEENS1_IS3_EEEC2EmRKS3_, symObjAddr: 0x20F8, symBinAddr: 0x100004B64, symSize: 0xDC }
  - { offsetInCU: 0xDBE9, offset: 0xDBE9, size: 0x8, addend: 0x0, symName: __ZNSt3__117__compressed_pairIPNS_6vectorIcNS_9allocatorIcEEEENS2_IS4_EEEC1B8ue170006IDnNS_18__default_init_tagEEEOT_OT0_, symObjAddr: 0x21D4, symBinAddr: 0x100004C40, symSize: 0x3C }
  - { offsetInCU: 0xDC41, offset: 0xDC41, size: 0x8, addend: 0x0, symName: __ZNSt3__16vectorINS0_IcNS_9allocatorIcEEEENS1_IS3_EEE16__destroy_vectorC1B8ue170006ERS5_, symObjAddr: 0x2250, symBinAddr: 0x100004CBC, symSize: 0x34 }
  - { offsetInCU: 0xDC7A, offset: 0xDC7A, size: 0x8, addend: 0x0, symName: __ZNSt3__16vectorINS0_IcNS_9allocatorIcEEEENS1_IS3_EEE11__vallocateB8ue170006Em, symObjAddr: 0x2284, symBinAddr: 0x100004CF0, symSize: 0xB4 }
  - { offsetInCU: 0xDCBE, offset: 0xDCBE, size: 0x8, addend: 0x0, symName: __ZNSt3__16vectorINS0_IcNS_9allocatorIcEEEENS1_IS3_EEE18__construct_at_endEmRKS3_, symObjAddr: 0x2338, symBinAddr: 0x100004DA4, symSize: 0xD0 }
  - { offsetInCU: 0xDD3F, offset: 0xDD3F, size: 0x8, addend: 0x0, symName: __ZNSt3__128__exception_guard_exceptionsINS_6vectorINS1_IcNS_9allocatorIcEEEENS2_IS4_EEE16__destroy_vectorEE10__completeB8ue170006Ev, symObjAddr: 0x2408, symBinAddr: 0x100004E74, symSize: 0x1C }
  - { offsetInCU: 0xDD65, offset: 0xDD65, size: 0x8, addend: 0x0, symName: __ZNSt3__128__exception_guard_exceptionsINS_6vectorINS1_IcNS_9allocatorIcEEEENS2_IS4_EEE16__destroy_vectorEED1B8ue170006Ev, symObjAddr: 0x2424, symBinAddr: 0x100004E90, symSize: 0x2C }
  - { offsetInCU: 0xDD8F, offset: 0xDD8F, size: 0x8, addend: 0x0, symName: __ZNSt3__117__compressed_pairIPNS_6vectorIcNS_9allocatorIcEEEENS2_IS4_EEEC2B8ue170006IDnNS_18__default_init_tagEEEOT_OT0_, symObjAddr: 0x2450, symBinAddr: 0x100004EBC, symSize: 0x40 }
  - { offsetInCU: 0xDDE7, offset: 0xDDE7, size: 0x8, addend: 0x0, symName: __ZNSt3__122__compressed_pair_elemIPNS_6vectorIcNS_9allocatorIcEEEELi0ELb0EEC2B8ue170006IDnvEEOT_, symObjAddr: 0x2490, symBinAddr: 0x100004EFC, symSize: 0x1C }
  - { offsetInCU: 0xDE29, offset: 0xDE29, size: 0x8, addend: 0x0, symName: __ZNSt3__122__compressed_pair_elemINS_9allocatorINS_6vectorIcNS1_IcEEEEEELi1ELb1EEC2B8ue170006ENS_18__default_init_tagE, symObjAddr: 0x24AC, symBinAddr: 0x100004F18, symSize: 0x2C }
  - { offsetInCU: 0xDE5E, offset: 0xDE5E, size: 0x8, addend: 0x0, symName: __ZNSt3__19allocatorINS_6vectorIcNS0_IcEEEEEC2B8ue170006Ev, symObjAddr: 0x24D8, symBinAddr: 0x100004F44, symSize: 0x2C }
  - { offsetInCU: 0xDE88, offset: 0xDE88, size: 0x8, addend: 0x0, symName: __ZNSt3__116__non_trivial_ifILb1ENS_9allocatorINS_6vectorIcNS1_IcEEEEEEEC2B8ue170006Ev, symObjAddr: 0x2504, symBinAddr: 0x100004F70, symSize: 0x14 }
  - { offsetInCU: 0xDEB2, offset: 0xDEB2, size: 0x8, addend: 0x0, symName: __ZNSt3__128__exception_guard_exceptionsINS_6vectorINS1_IcNS_9allocatorIcEEEENS2_IS4_EEE16__destroy_vectorEEC1B8ue170006ES7_, symObjAddr: 0x2518, symBinAddr: 0x100004F84, symSize: 0x34 }
  - { offsetInCU: 0xDEEA, offset: 0xDEEA, size: 0x8, addend: 0x0, symName: __ZNSt3__128__exception_guard_exceptionsINS_6vectorINS1_IcNS_9allocatorIcEEEENS2_IS4_EEE16__destroy_vectorEEC2B8ue170006ES7_, symObjAddr: 0x254C, symBinAddr: 0x100004FB8, symSize: 0x24 }
  - { offsetInCU: 0xDF22, offset: 0xDF22, size: 0x8, addend: 0x0, symName: __ZNSt3__16vectorINS0_IcNS_9allocatorIcEEEENS1_IS3_EEE16__destroy_vectorC2B8ue170006ERS5_, symObjAddr: 0x2570, symBinAddr: 0x100004FDC, symSize: 0x20 }
  - { offsetInCU: 0xDF5B, offset: 0xDF5B, size: 0x8, addend: 0x0, symName: __ZNKSt3__16vectorINS0_IcNS_9allocatorIcEEEENS1_IS3_EEE8max_sizeEv, symObjAddr: 0x2590, symBinAddr: 0x100004FFC, symSize: 0x60 }
  - { offsetInCU: 0xDF83, offset: 0xDF83, size: 0x8, addend: 0x0, symName: __ZNKSt3__16vectorINS0_IcNS_9allocatorIcEEEENS1_IS3_EEE20__throw_length_errorB8ue170006Ev, symObjAddr: 0x25F0, symBinAddr: 0x10000505C, symSize: 0x1C }
  - { offsetInCU: 0xDFA9, offset: 0xDFA9, size: 0x8, addend: 0x0, symName: __ZNSt3__16vectorINS0_IcNS_9allocatorIcEEEENS1_IS3_EEE7__allocB8ue170006Ev, symObjAddr: 0x264C, symBinAddr: 0x1000050B8, symSize: 0x28 }
  - { offsetInCU: 0xDFCF, offset: 0xDFCF, size: 0x8, addend: 0x0, symName: __ZNSt3__16vectorINS0_IcNS_9allocatorIcEEEENS1_IS3_EEE9__end_capB8ue170006Ev, symObjAddr: 0x2674, symBinAddr: 0x1000050E0, symSize: 0x28 }
  - { offsetInCU: 0xDFF5, offset: 0xDFF5, size: 0x8, addend: 0x0, symName: __ZNKSt3__16vectorINS0_IcNS_9allocatorIcEEEENS1_IS3_EEE14__annotate_newB8ue170006Em, symObjAddr: 0x269C, symBinAddr: 0x100005108, symSize: 0xC8 }
  - { offsetInCU: 0xE034, offset: 0xE034, size: 0x8, addend: 0x0, symName: __ZNSt3__116allocator_traitsINS_9allocatorINS_6vectorIcNS1_IcEEEEEEE8max_sizeB8ue170006IS5_vEEmRKS5_, symObjAddr: 0x2764, symBinAddr: 0x1000051D0, symSize: 0x24 }
  - { offsetInCU: 0xE062, offset: 0xE062, size: 0x8, addend: 0x0, symName: __ZNKSt3__16vectorINS0_IcNS_9allocatorIcEEEENS1_IS3_EEE7__allocB8ue170006Ev, symObjAddr: 0x2788, symBinAddr: 0x1000051F4, symSize: 0x28 }
  - { offsetInCU: 0xE088, offset: 0xE088, size: 0x8, addend: 0x0, symName: __ZNKSt3__19allocatorINS_6vectorIcNS0_IcEEEEE8max_sizeB8ue170006Ev, symObjAddr: 0x27B0, symBinAddr: 0x10000521C, symSize: 0x18 }
  - { offsetInCU: 0xE0AE, offset: 0xE0AE, size: 0x8, addend: 0x0, symName: __ZNKSt3__117__compressed_pairIPNS_6vectorIcNS_9allocatorIcEEEENS2_IS4_EEE6secondB8ue170006Ev, symObjAddr: 0x27C8, symBinAddr: 0x100005234, symSize: 0x24 }
  - { offsetInCU: 0xE0D4, offset: 0xE0D4, size: 0x8, addend: 0x0, symName: __ZNKSt3__122__compressed_pair_elemINS_9allocatorINS_6vectorIcNS1_IcEEEEEELi1ELb1EE5__getB8ue170006Ev, symObjAddr: 0x27EC, symBinAddr: 0x100005258, symSize: 0x14 }
  - { offsetInCU: 0xE0FA, offset: 0xE0FA, size: 0x8, addend: 0x0, symName: __ZNSt3__19allocatorINS_6vectorIcNS0_IcEEEEE8allocateB8ue170006Em, symObjAddr: 0x2800, symBinAddr: 0x10000526C, symSize: 0x5C }
  - { offsetInCU: 0xE12E, offset: 0xE12E, size: 0x8, addend: 0x0, symName: __ZNSt3__117__compressed_pairIPNS_6vectorIcNS_9allocatorIcEEEENS2_IS4_EEE6secondB8ue170006Ev, symObjAddr: 0x285C, symBinAddr: 0x1000052C8, symSize: 0x24 }
  - { offsetInCU: 0xE154, offset: 0xE154, size: 0x8, addend: 0x0, symName: __ZNSt3__122__compressed_pair_elemINS_9allocatorINS_6vectorIcNS1_IcEEEEEELi1ELb1EE5__getB8ue170006Ev, symObjAddr: 0x2880, symBinAddr: 0x1000052EC, symSize: 0x14 }
  - { offsetInCU: 0xE17A, offset: 0xE17A, size: 0x8, addend: 0x0, symName: __ZNSt3__117__compressed_pairIPNS_6vectorIcNS_9allocatorIcEEEENS2_IS4_EEE5firstB8ue170006Ev, symObjAddr: 0x2894, symBinAddr: 0x100005300, symSize: 0x24 }
  - { offsetInCU: 0xE1A0, offset: 0xE1A0, size: 0x8, addend: 0x0, symName: __ZNSt3__122__compressed_pair_elemIPNS_6vectorIcNS_9allocatorIcEEEELi0ELb0EE5__getB8ue170006Ev, symObjAddr: 0x28B8, symBinAddr: 0x100005324, symSize: 0x14 }
  - { offsetInCU: 0xE1C6, offset: 0xE1C6, size: 0x8, addend: 0x0, symName: __ZNKSt3__16vectorINS0_IcNS_9allocatorIcEEEENS1_IS3_EEE31__annotate_contiguous_containerB8ue170006EPKvS7_S7_S7_, symObjAddr: 0x28CC, symBinAddr: 0x100005338, symSize: 0x20 }
  - { offsetInCU: 0xE218, offset: 0xE218, size: 0x8, addend: 0x0, symName: __ZNKSt3__16vectorINS0_IcNS_9allocatorIcEEEENS1_IS3_EEE4dataB8ue170006Ev, symObjAddr: 0x28EC, symBinAddr: 0x100005358, symSize: 0x28 }
  - { offsetInCU: 0xE23E, offset: 0xE23E, size: 0x8, addend: 0x0, symName: __ZNKSt3__16vectorINS0_IcNS_9allocatorIcEEEENS1_IS3_EEE8capacityB8ue170006Ev, symObjAddr: 0x2914, symBinAddr: 0x100005380, symSize: 0x40 }
  - { offsetInCU: 0xE264, offset: 0xE264, size: 0x8, addend: 0x0, symName: __ZNKSt3__16vectorINS0_IcNS_9allocatorIcEEEENS1_IS3_EEE9__end_capB8ue170006Ev, symObjAddr: 0x2968, symBinAddr: 0x1000053D4, symSize: 0x28 }
  - { offsetInCU: 0xE28A, offset: 0xE28A, size: 0x8, addend: 0x0, symName: __ZNKSt3__117__compressed_pairIPNS_6vectorIcNS_9allocatorIcEEEENS2_IS4_EEE5firstB8ue170006Ev, symObjAddr: 0x2990, symBinAddr: 0x1000053FC, symSize: 0x24 }
  - { offsetInCU: 0xE2B0, offset: 0xE2B0, size: 0x8, addend: 0x0, symName: __ZNKSt3__122__compressed_pair_elemIPNS_6vectorIcNS_9allocatorIcEEEELi0ELb0EE5__getB8ue170006Ev, symObjAddr: 0x29B4, symBinAddr: 0x100005420, symSize: 0x14 }
  - { offsetInCU: 0xE2EF, offset: 0xE2EF, size: 0x8, addend: 0x0, symName: __ZNSt3__16vectorINS0_IcNS_9allocatorIcEEEENS1_IS3_EEE21_ConstructTransactionC1B8ue170006ERS5_m, symObjAddr: 0x29C8, symBinAddr: 0x100005434, symSize: 0x3C }
  - { offsetInCU: 0xE337, offset: 0xE337, size: 0x8, addend: 0x0, symName: __ZNSt3__116allocator_traitsINS_9allocatorINS_6vectorIcNS1_IcEEEEEEE9constructB8ue170006IS4_JRKS4_EvEEvRS5_PT_DpOT0_, symObjAddr: 0x2A04, symBinAddr: 0x100005470, symSize: 0x34 }
  - { offsetInCU: 0xE38E, offset: 0xE38E, size: 0x8, addend: 0x0, symName: __ZNSt3__16vectorINS0_IcNS_9allocatorIcEEEENS1_IS3_EEE21_ConstructTransactionD1B8ue170006Ev, symObjAddr: 0x2A38, symBinAddr: 0x1000054A4, symSize: 0x2C }
  - { offsetInCU: 0xE3B8, offset: 0xE3B8, size: 0x8, addend: 0x0, symName: __ZNSt3__16vectorINS0_IcNS_9allocatorIcEEEENS1_IS3_EEE21_ConstructTransactionC2B8ue170006ERS5_m, symObjAddr: 0x2A64, symBinAddr: 0x1000054D0, symSize: 0x4C }
  - { offsetInCU: 0xE400, offset: 0xE400, size: 0x8, addend: 0x0, symName: __ZNSt3__19allocatorINS_6vectorIcNS0_IcEEEEE9constructB8ue170006IS3_JRKS3_EEEvPT_DpOT0_, symObjAddr: 0x2AB0, symBinAddr: 0x10000551C, symSize: 0x30 }
  - { offsetInCU: 0xE456, offset: 0xE456, size: 0x8, addend: 0x0, symName: __ZNSt3__16vectorIcNS_9allocatorIcEEEC1ERKS3_, symObjAddr: 0x2AE0, symBinAddr: 0x10000554C, symSize: 0x34 }
  - { offsetInCU: 0xE491, offset: 0xE491, size: 0x8, addend: 0x0, symName: __ZNSt3__16vectorIcNS_9allocatorIcEEEC2ERKS3_, symObjAddr: 0x2B14, symBinAddr: 0x100005580, symSize: 0x94 }
  - { offsetInCU: 0xE4CC, offset: 0xE4CC, size: 0x8, addend: 0x0, symName: __ZNSt3__116allocator_traitsINS_9allocatorIcEEE37select_on_container_copy_constructionB8ue170006IS2_vvEES2_RKS2_, symObjAddr: 0x2BA8, symBinAddr: 0x100005614, symSize: 0x10 }
  - { offsetInCU: 0xE500, offset: 0xE500, size: 0x8, addend: 0x0, symName: __ZNSt3__117__compressed_pairIPcNS_9allocatorIcEEEC1B8ue170006IDnS3_EEOT_OT0_, symObjAddr: 0x2BB8, symBinAddr: 0x100005624, symSize: 0x3C }
  - { offsetInCU: 0xE558, offset: 0xE558, size: 0x8, addend: 0x0, symName: __ZNSt3__16vectorIcNS_9allocatorIcEEE16__init_with_sizeB8ue170006IPcS5_EEvT_T0_m, symObjAddr: 0x2BF4, symBinAddr: 0x100005660, symSize: 0xB8 }
  - { offsetInCU: 0xE5CC, offset: 0xE5CC, size: 0x8, addend: 0x0, symName: __ZNSt3__117__compressed_pairIPcNS_9allocatorIcEEEC2B8ue170006IDnS3_EEOT_OT0_, symObjAddr: 0x2CAC, symBinAddr: 0x100005718, symSize: 0x44 }
  - { offsetInCU: 0xE624, offset: 0xE624, size: 0x8, addend: 0x0, symName: __ZNSt3__122__compressed_pair_elemINS_9allocatorIcEELi1ELb1EEC2B8ue170006IS2_vEEOT_, symObjAddr: 0x2CF0, symBinAddr: 0x10000575C, symSize: 0x18 }
  - { offsetInCU: 0xE666, offset: 0xE666, size: 0x8, addend: 0x0, symName: __ZNSt3__16vectorIcNS_9allocatorIcEEE18__construct_at_endIPcS5_EEvT_T0_m, symObjAddr: 0x2D08, symBinAddr: 0x100005774, symSize: 0x8C }
  - { offsetInCU: 0xE6FA, offset: 0xE6FA, size: 0x8, addend: 0x0, symName: __ZNSt3__14pairIPcS1_EC1B8ue170006IS1_S1_LPv0EEEOT_OT0_, symObjAddr: 0x2F44, symBinAddr: 0x1000059B0, symSize: 0x3C }
  - { offsetInCU: 0xE758, offset: 0xE758, size: 0x8, addend: 0x0, symName: __ZNSt3__14pairIPcS1_EC2B8ue170006IS1_S1_LPv0EEEOT_OT0_, symObjAddr: 0x2F80, symBinAddr: 0x1000059EC, symSize: 0x34 }
  - { offsetInCU: 0xE7C0, offset: 0xE7C0, size: 0x8, addend: 0x0, symName: __ZNKSt3__114__copy_trivialclB8ue170006IccLi0EEENS_4pairIPT_PT0_EES4_S4_S6_, symObjAddr: 0x3130, symBinAddr: 0x100005B9C, symSize: 0x48 }
  - { offsetInCU: 0xE828, offset: 0xE828, size: 0x8, addend: 0x0, symName: __ZNSt3__14pairIPcS1_EC1B8ue170006IRS1_S1_LPv0EEEOT_OT0_, symObjAddr: 0x32B8, symBinAddr: 0x100005D24, symSize: 0x3C }
  - { offsetInCU: 0xE886, offset: 0xE886, size: 0x8, addend: 0x0, symName: __ZNSt3__14pairIPcS1_EC2B8ue170006IRS1_S1_LPv0EEEOT_OT0_, symObjAddr: 0x32F4, symBinAddr: 0x100005D60, symSize: 0x34 }
  - { offsetInCU: 0xE8E4, offset: 0xE8E4, size: 0x8, addend: 0x0, symName: __ZNSt3__118__unwrap_iter_implIPcLb1EE8__unwrapB8ue170006ES1_, symObjAddr: 0x3328, symBinAddr: 0x100005D94, symSize: 0x24 }
  - { offsetInCU: 0xE907, offset: 0xE907, size: 0x8, addend: 0x0, symName: __ZNSt3__118__unwrap_iter_implIPcLb1EE8__rewrapB8ue170006ES1_S1_, symObjAddr: 0x334C, symBinAddr: 0x100005DB8, symSize: 0x48 }
  - { offsetInCU: 0xE938, offset: 0xE938, size: 0x8, addend: 0x0, symName: __ZNSt3__16vectorINS0_IcNS_9allocatorIcEEEENS1_IS3_EEE21_ConstructTransactionD2B8ue170006Ev, symObjAddr: 0x3394, symBinAddr: 0x100005E00, symSize: 0x20 }
  - { offsetInCU: 0xE962, offset: 0xE962, size: 0x8, addend: 0x0, symName: __ZNSt3__128__exception_guard_exceptionsINS_6vectorINS1_IcNS_9allocatorIcEEEENS2_IS4_EEE16__destroy_vectorEED2B8ue170006Ev, symObjAddr: 0x33B4, symBinAddr: 0x100005E20, symSize: 0x50 }
  - { offsetInCU: 0xE98C, offset: 0xE98C, size: 0x8, addend: 0x0, symName: __ZNSt3__16vectorINS0_IcNS_9allocatorIcEEEENS1_IS3_EEE16__destroy_vectorclB8ue170006Ev, symObjAddr: 0x3404, symBinAddr: 0x100005E70, symSize: 0x90 }
  - { offsetInCU: 0xE9B2, offset: 0xE9B2, size: 0x8, addend: 0x0, symName: __ZNSt3__16vectorINS0_IcNS_9allocatorIcEEEENS1_IS3_EEE7__clearB8ue170006Ev, symObjAddr: 0x3494, symBinAddr: 0x100005F00, symSize: 0x28 }
  - { offsetInCU: 0xE9D8, offset: 0xE9D8, size: 0x8, addend: 0x0, symName: __ZNKSt3__16vectorINS0_IcNS_9allocatorIcEEEENS1_IS3_EEE17__annotate_deleteB8ue170006Ev, symObjAddr: 0x34BC, symBinAddr: 0x100005F28, symSize: 0xD4 }
  - { offsetInCU: 0xE9FE, offset: 0xE9FE, size: 0x8, addend: 0x0, symName: __ZNSt3__116allocator_traitsINS_9allocatorINS_6vectorIcNS1_IcEEEEEEE10deallocateB8ue170006ERS5_PS4_m, symObjAddr: 0x3590, symBinAddr: 0x100005FFC, symSize: 0x34 }
  - { offsetInCU: 0xEA40, offset: 0xEA40, size: 0x8, addend: 0x0, symName: __ZNSt3__16vectorINS0_IcNS_9allocatorIcEEEENS1_IS3_EEE22__base_destruct_at_endB8ue170006EPS3_, symObjAddr: 0x35C4, symBinAddr: 0x100006030, symSize: 0x8C }
  - { offsetInCU: 0xEA84, offset: 0xEA84, size: 0x8, addend: 0x0, symName: __ZNSt3__116allocator_traitsINS_9allocatorINS_6vectorIcNS1_IcEEEEEEE7destroyB8ue170006IS4_vEEvRS5_PT_, symObjAddr: 0x3650, symBinAddr: 0x1000060BC, symSize: 0x2C }
  - { offsetInCU: 0xEAC1, offset: 0xEAC1, size: 0x8, addend: 0x0, symName: __ZNSt3__19allocatorINS_6vectorIcNS0_IcEEEEE7destroyB8ue170006EPS3_, symObjAddr: 0x367C, symBinAddr: 0x1000060E8, symSize: 0x28 }
  - { offsetInCU: 0xEAF5, offset: 0xEAF5, size: 0x8, addend: 0x0, symName: __ZNKSt3__16vectorINS0_IcNS_9allocatorIcEEEENS1_IS3_EEE4sizeB8ue170006Ev, symObjAddr: 0x36A4, symBinAddr: 0x100006110, symSize: 0x28 }
  - { offsetInCU: 0xEB1B, offset: 0xEB1B, size: 0x8, addend: 0x0, symName: __ZNSt3__19allocatorINS_6vectorIcNS0_IcEEEEE10deallocateB8ue170006EPS3_m, symObjAddr: 0x36CC, symBinAddr: 0x100006138, symSize: 0x44 }
  - { offsetInCU: 0xEB5D, offset: 0xEB5D, size: 0x8, addend: 0x0, symName: __ZNSt3__16vectorINS0_IcNS_9allocatorIcEEEENS1_IS3_EEED2B8ue170006Ev, symObjAddr: 0x3710, symBinAddr: 0x10000617C, symSize: 0x40 }
  - { offsetInCU: 0xEB87, offset: 0xEB87, size: 0x8, addend: 0x0, symName: __ZNKSt3__19basic_iosIcNS_11char_traitsIcEEE5widenB8ue170006Ec, symObjAddr: 0x3750, symBinAddr: 0x1000061BC, symSize: 0x84 }
  - { offsetInCU: 0xEBF0, offset: 0xEBF0, size: 0x8, addend: 0x0, symName: __ZNKSt3__15ctypeIcE5widenB8ue170006Ec, symObjAddr: 0x3800, symBinAddr: 0x10000626C, symSize: 0x38 }
  - { offsetInCU: 0xEC43, offset: 0xEC43, size: 0x8, addend: 0x0, symName: __ZNKSt3__113basic_ostreamIcNS_11char_traitsIcEEE6sentrycvbB8ue170006Ev, symObjAddr: 0x3A24, symBinAddr: 0x100006490, symSize: 0x1C }
  - { offsetInCU: 0xEC69, offset: 0xEC69, size: 0x8, addend: 0x0, symName: __ZNSt3__119ostreambuf_iteratorIcNS_11char_traitsIcEEEC1B8ue170006ERNS_13basic_ostreamIcS2_EE, symObjAddr: 0x3C80, symBinAddr: 0x1000066EC, symSize: 0x34 }
  - { offsetInCU: 0xECA1, offset: 0xECA1, size: 0x8, addend: 0x0, symName: __ZNKSt3__18ios_base5flagsB8ue170006Ev, symObjAddr: 0x3CB4, symBinAddr: 0x100006720, symSize: 0x18 }
  - { offsetInCU: 0xECC9, offset: 0xECC9, size: 0x8, addend: 0x0, symName: __ZNKSt3__19basic_iosIcNS_11char_traitsIcEEE4fillB8ue170006Ev, symObjAddr: 0x3CCC, symBinAddr: 0x100006738, symSize: 0x64 }
  - { offsetInCU: 0xECF1, offset: 0xECF1, size: 0x8, addend: 0x0, symName: __ZNKSt3__119ostreambuf_iteratorIcNS_11char_traitsIcEEE6failedB8ue170006Ev, symObjAddr: 0x3D30, symBinAddr: 0x10000679C, symSize: 0x24 }
  - { offsetInCU: 0xED17, offset: 0xED17, size: 0x8, addend: 0x0, symName: __ZNSt3__19basic_iosIcNS_11char_traitsIcEEE8setstateB8ue170006Ej, symObjAddr: 0x3D54, symBinAddr: 0x1000067C0, symSize: 0x2C }
  - { offsetInCU: 0xED4C, offset: 0xED4C, size: 0x8, addend: 0x0, symName: __ZNKSt3__18ios_base5widthB8ue170006Ev, symObjAddr: 0x3D80, symBinAddr: 0x1000067EC, symSize: 0x18 }
  - { offsetInCU: 0xED74, offset: 0xED74, size: 0x8, addend: 0x0, symName: __ZNSt3__115basic_streambufIcNS_11char_traitsIcEEE5sputnB8ue170006EPKcl, symObjAddr: 0x3D98, symBinAddr: 0x100006804, symSize: 0x3C }
  - { offsetInCU: 0xEDB6, offset: 0xEDB6, size: 0x8, addend: 0x0, symName: __ZNSt3__112basic_stringIcNS_11char_traitsIcEENS_9allocatorIcEEEC1B8ue170006Emc, symObjAddr: 0x3DD4, symBinAddr: 0x100006840, symSize: 0x3C }
  - { offsetInCU: 0xEDFE, offset: 0xEDFE, size: 0x8, addend: 0x0, symName: __ZNSt3__112basic_stringIcNS_11char_traitsIcEENS_9allocatorIcEEE4dataB8ue170006Ev, symObjAddr: 0x3E10, symBinAddr: 0x10000687C, symSize: 0x28 }
  - { offsetInCU: 0xEE24, offset: 0xEE24, size: 0x8, addend: 0x0, symName: __ZNSt3__18ios_base5widthB8ue170006El, symObjAddr: 0x3E38, symBinAddr: 0x1000068A4, symSize: 0x2C }
  - { offsetInCU: 0xEE6A, offset: 0xEE6A, size: 0x8, addend: 0x0, symName: __ZNSt3__112basic_stringIcNS_11char_traitsIcEENS_9allocatorIcEEEC2B8ue170006Emc, symObjAddr: 0x3E64, symBinAddr: 0x1000068D0, symSize: 0x4C }
  - { offsetInCU: 0xEEB2, offset: 0xEEB2, size: 0x8, addend: 0x0, symName: __ZNSt3__117__compressed_pairINS_12basic_stringIcNS_11char_traitsIcEENS_9allocatorIcEEE5__repES5_EC1B8ue170006INS_18__default_init_tagESA_EEOT_OT0_, symObjAddr: 0x3EB0, symBinAddr: 0x10000691C, symSize: 0x3C }
  - { offsetInCU: 0xEF0A, offset: 0xEF0A, size: 0x8, addend: 0x0, symName: __ZNSt3__117__compressed_pairINS_12basic_stringIcNS_11char_traitsIcEENS_9allocatorIcEEE5__repES5_EC2B8ue170006INS_18__default_init_tagESA_EEOT_OT0_, symObjAddr: 0x3EEC, symBinAddr: 0x100006958, symSize: 0x3C }
  - { offsetInCU: 0xEF62, offset: 0xEF62, size: 0x8, addend: 0x0, symName: __ZNSt3__122__compressed_pair_elemINS_12basic_stringIcNS_11char_traitsIcEENS_9allocatorIcEEE5__repELi0ELb0EEC2B8ue170006ENS_18__default_init_tagE, symObjAddr: 0x3F28, symBinAddr: 0x100006994, symSize: 0x14 }
  - { offsetInCU: 0xEF97, offset: 0xEF97, size: 0x8, addend: 0x0, symName: __ZNSt3__112basic_stringIcNS_11char_traitsIcEENS_9allocatorIcEEE13__get_pointerB8ue170006Ev, symObjAddr: 0x3F3C, symBinAddr: 0x1000069A8, symSize: 0x54 }
  - { offsetInCU: 0xEFBD, offset: 0xEFBD, size: 0x8, addend: 0x0, symName: __ZNKSt3__112basic_stringIcNS_11char_traitsIcEENS_9allocatorIcEEE9__is_longB8ue170006Ev, symObjAddr: 0x3F90, symBinAddr: 0x1000069FC, symSize: 0x38 }
  - { offsetInCU: 0xEFE3, offset: 0xEFE3, size: 0x8, addend: 0x0, symName: __ZNSt3__112basic_stringIcNS_11char_traitsIcEENS_9allocatorIcEEE18__get_long_pointerB8ue170006Ev, symObjAddr: 0x3FC8, symBinAddr: 0x100006A34, symSize: 0x28 }
  - { offsetInCU: 0xF009, offset: 0xF009, size: 0x8, addend: 0x0, symName: __ZNSt3__112basic_stringIcNS_11char_traitsIcEENS_9allocatorIcEEE19__get_short_pointerB8ue170006Ev, symObjAddr: 0x3FF0, symBinAddr: 0x100006A5C, symSize: 0x28 }
  - { offsetInCU: 0xF02F, offset: 0xF02F, size: 0x8, addend: 0x0, symName: __ZNKSt3__117__compressed_pairINS_12basic_stringIcNS_11char_traitsIcEENS_9allocatorIcEEE5__repES5_E5firstB8ue170006Ev, symObjAddr: 0x4018, symBinAddr: 0x100006A84, symSize: 0x24 }
  - { offsetInCU: 0xF055, offset: 0xF055, size: 0x8, addend: 0x0, symName: __ZNKSt3__122__compressed_pair_elemINS_12basic_stringIcNS_11char_traitsIcEENS_9allocatorIcEEE5__repELi0ELb0EE5__getB8ue170006Ev, symObjAddr: 0x403C, symBinAddr: 0x100006AA8, symSize: 0x14 }
  - { offsetInCU: 0xF07B, offset: 0xF07B, size: 0x8, addend: 0x0, symName: __ZNSt3__117__compressed_pairINS_12basic_stringIcNS_11char_traitsIcEENS_9allocatorIcEEE5__repES5_E5firstB8ue170006Ev, symObjAddr: 0x4050, symBinAddr: 0x100006ABC, symSize: 0x24 }
  - { offsetInCU: 0xF0A1, offset: 0xF0A1, size: 0x8, addend: 0x0, symName: __ZNSt3__122__compressed_pair_elemINS_12basic_stringIcNS_11char_traitsIcEENS_9allocatorIcEEE5__repELi0ELb0EE5__getB8ue170006Ev, symObjAddr: 0x4074, symBinAddr: 0x100006AE0, symSize: 0x14 }
  - { offsetInCU: 0xF0C7, offset: 0xF0C7, size: 0x8, addend: 0x0, symName: __ZNSt3__114pointer_traitsIPcE10pointer_toB8ue170006ERc, symObjAddr: 0x4088, symBinAddr: 0x100006AF4, symSize: 0x14 }
  - { offsetInCU: 0xF0EA, offset: 0xF0EA, size: 0x8, addend: 0x0, symName: __ZNSt3__119ostreambuf_iteratorIcNS_11char_traitsIcEEEC2B8ue170006ERNS_13basic_ostreamIcS2_EE, symObjAddr: 0x409C, symBinAddr: 0x100006B08, symSize: 0x54 }
  - { offsetInCU: 0xF122, offset: 0xF122, size: 0x8, addend: 0x0, symName: __ZNKSt3__19basic_iosIcNS_11char_traitsIcEEE5rdbufB8ue170006Ev, symObjAddr: 0x40F0, symBinAddr: 0x100006B5C, symSize: 0x24 }
  - { offsetInCU: 0xF14A, offset: 0xF14A, size: 0x8, addend: 0x0, symName: __ZNKSt3__18ios_base5rdbufB8ue170006Ev, symObjAddr: 0x4114, symBinAddr: 0x100006B80, symSize: 0x18 }
  - { offsetInCU: 0xF170, offset: 0xF170, size: 0x8, addend: 0x0, symName: __ZNSt3__111char_traitsIcE11eq_int_typeB8ue170006Eii, symObjAddr: 0x412C, symBinAddr: 0x100006B98, symSize: 0x28 }
  - { offsetInCU: 0xF1A3, offset: 0xF1A3, size: 0x8, addend: 0x0, symName: __ZNSt3__111char_traitsIcE3eofB8ue170006Ev, symObjAddr: 0x4154, symBinAddr: 0x100006BC0, symSize: 0x8 }
  - { offsetInCU: 0xF1B7, offset: 0xF1B7, size: 0x8, addend: 0x0, symName: __ZNSt3__18ios_base8setstateB8ue170006Ej, symObjAddr: 0x415C, symBinAddr: 0x100006BC8, symSize: 0x34 }
  - { offsetInCU: 0xF1EE, offset: 0xF1EE, size: 0x8, addend: 0x0, symName: __ZNSt3__111char_traitsIcE6lengthB8ue170006EPKc, symObjAddr: 0x4190, symBinAddr: 0x100006BFC, symSize: 0x34 }
  - { offsetInCU: 0xF211, offset: 0xF211, size: 0x8, addend: 0x0, symName: __ZNSt3__16vectorINS0_IiNS_9allocatorIiEEEENS1_IS3_EEEC2B8ue170006Ev, symObjAddr: 0x41E8, symBinAddr: 0x100006C54, symSize: 0x4C }
  - { offsetInCU: 0xF23B, offset: 0xF23B, size: 0x8, addend: 0x0, symName: __ZNSt3__117__compressed_pairIPNS_6vectorIiNS_9allocatorIiEEEENS2_IS4_EEEC1B8ue170006IDnNS_18__default_init_tagEEEOT_OT0_, symObjAddr: 0x4234, symBinAddr: 0x100006CA0, symSize: 0x3C }
  - { offsetInCU: 0xF293, offset: 0xF293, size: 0x8, addend: 0x0, symName: __ZNSt3__117__compressed_pairIPNS_6vectorIiNS_9allocatorIiEEEENS2_IS4_EEEC2B8ue170006IDnNS_18__default_init_tagEEEOT_OT0_, symObjAddr: 0x4270, symBinAddr: 0x100006CDC, symSize: 0x40 }
  - { offsetInCU: 0xF2EB, offset: 0xF2EB, size: 0x8, addend: 0x0, symName: __ZNSt3__122__compressed_pair_elemIPNS_6vectorIiNS_9allocatorIiEEEELi0ELb0EEC2B8ue170006IDnvEEOT_, symObjAddr: 0x42B0, symBinAddr: 0x100006D1C, symSize: 0x1C }
  - { offsetInCU: 0xF32D, offset: 0xF32D, size: 0x8, addend: 0x0, symName: __ZNSt3__122__compressed_pair_elemINS_9allocatorINS_6vectorIiNS1_IiEEEEEELi1ELb1EEC2B8ue170006ENS_18__default_init_tagE, symObjAddr: 0x42CC, symBinAddr: 0x100006D38, symSize: 0x2C }
  - { offsetInCU: 0xF362, offset: 0xF362, size: 0x8, addend: 0x0, symName: __ZNSt3__19allocatorINS_6vectorIiNS0_IiEEEEEC2B8ue170006Ev, symObjAddr: 0x42F8, symBinAddr: 0x100006D64, symSize: 0x2C }
  - { offsetInCU: 0xF38C, offset: 0xF38C, size: 0x8, addend: 0x0, symName: __ZNSt3__116__non_trivial_ifILb1ENS_9allocatorINS_6vectorIiNS1_IiEEEEEEEC2B8ue170006Ev, symObjAddr: 0x4324, symBinAddr: 0x100006D90, symSize: 0x14 }
  - { offsetInCU: 0xF3B6, offset: 0xF3B6, size: 0x8, addend: 0x0, symName: __ZNSt3__16vectorINS0_IiNS_9allocatorIiEEEENS1_IS3_EEED2B8ue170006Ev, symObjAddr: 0x4338, symBinAddr: 0x100006DA4, symSize: 0x44 }
  - { offsetInCU: 0xF3E0, offset: 0xF3E0, size: 0x8, addend: 0x0, symName: __ZNSt3__16vectorINS0_IiNS_9allocatorIiEEEENS1_IS3_EEE16__destroy_vectorC1B8ue170006ERS5_, symObjAddr: 0x437C, symBinAddr: 0x100006DE8, symSize: 0x34 }
  - { offsetInCU: 0xF419, offset: 0xF419, size: 0x8, addend: 0x0, symName: __ZNSt3__16vectorINS0_IiNS_9allocatorIiEEEENS1_IS3_EEE16__destroy_vectorclB8ue170006Ev, symObjAddr: 0x43B0, symBinAddr: 0x100006E1C, symSize: 0x90 }
  - { offsetInCU: 0xF43F, offset: 0xF43F, size: 0x8, addend: 0x0, symName: __ZNSt3__16vectorINS0_IiNS_9allocatorIiEEEENS1_IS3_EEE16__destroy_vectorC2B8ue170006ERS5_, symObjAddr: 0x4440, symBinAddr: 0x100006EAC, symSize: 0x20 }
  - { offsetInCU: 0xF478, offset: 0xF478, size: 0x8, addend: 0x0, symName: __ZNSt3__16vectorINS0_IiNS_9allocatorIiEEEENS1_IS3_EEE7__clearB8ue170006Ev, symObjAddr: 0x4460, symBinAddr: 0x100006ECC, symSize: 0x28 }
  - { offsetInCU: 0xF49E, offset: 0xF49E, size: 0x8, addend: 0x0, symName: __ZNKSt3__16vectorINS0_IiNS_9allocatorIiEEEENS1_IS3_EEE17__annotate_deleteB8ue170006Ev, symObjAddr: 0x4488, symBinAddr: 0x100006EF4, symSize: 0xD4 }
  - { offsetInCU: 0xF4C4, offset: 0xF4C4, size: 0x8, addend: 0x0, symName: __ZNSt3__116allocator_traitsINS_9allocatorINS_6vectorIiNS1_IiEEEEEEE10deallocateB8ue170006ERS5_PS4_m, symObjAddr: 0x455C, symBinAddr: 0x100006FC8, symSize: 0x34 }
  - { offsetInCU: 0xF506, offset: 0xF506, size: 0x8, addend: 0x0, symName: __ZNSt3__16vectorINS0_IiNS_9allocatorIiEEEENS1_IS3_EEE7__allocB8ue170006Ev, symObjAddr: 0x4590, symBinAddr: 0x100006FFC, symSize: 0x28 }
  - { offsetInCU: 0xF52C, offset: 0xF52C, size: 0x8, addend: 0x0, symName: __ZNKSt3__16vectorINS0_IiNS_9allocatorIiEEEENS1_IS3_EEE8capacityB8ue170006Ev, symObjAddr: 0x45B8, symBinAddr: 0x100007024, symSize: 0x40 }
  - { offsetInCU: 0xF552, offset: 0xF552, size: 0x8, addend: 0x0, symName: __ZNSt3__16vectorINS0_IiNS_9allocatorIiEEEENS1_IS3_EEE22__base_destruct_at_endB8ue170006EPS3_, symObjAddr: 0x45F8, symBinAddr: 0x100007064, symSize: 0x8C }
  - { offsetInCU: 0xF596, offset: 0xF596, size: 0x8, addend: 0x0, symName: __ZNSt3__116allocator_traitsINS_9allocatorINS_6vectorIiNS1_IiEEEEEEE7destroyB8ue170006IS4_vEEvRS5_PT_, symObjAddr: 0x4684, symBinAddr: 0x1000070F0, symSize: 0x2C }
  - { offsetInCU: 0xF5D3, offset: 0xF5D3, size: 0x8, addend: 0x0, symName: __ZNSt3__19allocatorINS_6vectorIiNS0_IiEEEEE7destroyB8ue170006EPS3_, symObjAddr: 0x46C4, symBinAddr: 0x100007130, symSize: 0x28 }
  - { offsetInCU: 0xF607, offset: 0xF607, size: 0x8, addend: 0x0, symName: __ZNSt3__16vectorIiNS_9allocatorIiEEED1B8ue170006Ev, symObjAddr: 0x46EC, symBinAddr: 0x100007158, symSize: 0x2C }
  - { offsetInCU: 0xF631, offset: 0xF631, size: 0x8, addend: 0x0, symName: __ZNSt3__16vectorIiNS_9allocatorIiEEED2B8ue170006Ev, symObjAddr: 0x4718, symBinAddr: 0x100007184, symSize: 0x44 }
  - { offsetInCU: 0xF65B, offset: 0xF65B, size: 0x8, addend: 0x0, symName: __ZNSt3__16vectorIiNS_9allocatorIiEEE16__destroy_vectorC1B8ue170006ERS3_, symObjAddr: 0x475C, symBinAddr: 0x1000071C8, symSize: 0x34 }
  - { offsetInCU: 0xF694, offset: 0xF694, size: 0x8, addend: 0x0, symName: __ZNSt3__16vectorIiNS_9allocatorIiEEE16__destroy_vectorclB8ue170006Ev, symObjAddr: 0x4790, symBinAddr: 0x1000071FC, symSize: 0x90 }
  - { offsetInCU: 0xF6BA, offset: 0xF6BA, size: 0x8, addend: 0x0, symName: __ZNSt3__16vectorIiNS_9allocatorIiEEE16__destroy_vectorC2B8ue170006ERS3_, symObjAddr: 0x4820, symBinAddr: 0x10000728C, symSize: 0x20 }
  - { offsetInCU: 0xF6F3, offset: 0xF6F3, size: 0x8, addend: 0x0, symName: __ZNSt3__16vectorIiNS_9allocatorIiEEE7__clearB8ue170006Ev, symObjAddr: 0x4840, symBinAddr: 0x1000072AC, symSize: 0x28 }
  - { offsetInCU: 0xF719, offset: 0xF719, size: 0x8, addend: 0x0, symName: __ZNKSt3__16vectorIiNS_9allocatorIiEEE17__annotate_deleteB8ue170006Ev, symObjAddr: 0x4868, symBinAddr: 0x1000072D4, symSize: 0xB8 }
  - { offsetInCU: 0xF73F, offset: 0xF73F, size: 0x8, addend: 0x0, symName: __ZNSt3__116allocator_traitsINS_9allocatorIiEEE10deallocateB8ue170006ERS2_Pim, symObjAddr: 0x4920, symBinAddr: 0x10000738C, symSize: 0x34 }
  - { offsetInCU: 0xF781, offset: 0xF781, size: 0x8, addend: 0x0, symName: __ZNSt3__16vectorIiNS_9allocatorIiEEE7__allocB8ue170006Ev, symObjAddr: 0x4954, symBinAddr: 0x1000073C0, symSize: 0x28 }
  - { offsetInCU: 0xF7A7, offset: 0xF7A7, size: 0x8, addend: 0x0, symName: __ZNKSt3__16vectorIiNS_9allocatorIiEEE8capacityB8ue170006Ev, symObjAddr: 0x497C, symBinAddr: 0x1000073E8, symSize: 0x40 }
  - { offsetInCU: 0xF7CD, offset: 0xF7CD, size: 0x8, addend: 0x0, symName: __ZNSt3__16vectorIiNS_9allocatorIiEEE22__base_destruct_at_endB8ue170006EPi, symObjAddr: 0x49BC, symBinAddr: 0x100007428, symSize: 0x8C }
  - { offsetInCU: 0xF811, offset: 0xF811, size: 0x8, addend: 0x0, symName: __ZNSt3__116allocator_traitsINS_9allocatorIiEEE7destroyB8ue170006IivEEvRS2_PT_, symObjAddr: 0x4A48, symBinAddr: 0x1000074B4, symSize: 0x2C }
  - { offsetInCU: 0xF84E, offset: 0xF84E, size: 0x8, addend: 0x0, symName: __ZNSt3__19allocatorIiE7destroyB8ue170006EPi, symObjAddr: 0x4A88, symBinAddr: 0x1000074F4, symSize: 0x14 }
  - { offsetInCU: 0xF882, offset: 0xF882, size: 0x8, addend: 0x0, symName: __ZNKSt3__16vectorIiNS_9allocatorIiEEE31__annotate_contiguous_containerB8ue170006EPKvS5_S5_S5_, symObjAddr: 0x4A9C, symBinAddr: 0x100007508, symSize: 0x20 }
  - { offsetInCU: 0xF8D4, offset: 0xF8D4, size: 0x8, addend: 0x0, symName: __ZNKSt3__16vectorIiNS_9allocatorIiEEE4dataB8ue170006Ev, symObjAddr: 0x4ABC, symBinAddr: 0x100007528, symSize: 0x28 }
  - { offsetInCU: 0xF8FA, offset: 0xF8FA, size: 0x8, addend: 0x0, symName: __ZNKSt3__16vectorIiNS_9allocatorIiEEE4sizeB8ue170006Ev, symObjAddr: 0x4AE4, symBinAddr: 0x100007550, symSize: 0x28 }
  - { offsetInCU: 0xF920, offset: 0xF920, size: 0x8, addend: 0x0, symName: __ZNSt3__19allocatorIiE10deallocateB8ue170006EPim, symObjAddr: 0x4B0C, symBinAddr: 0x100007578, symSize: 0x40 }
  - { offsetInCU: 0xF962, offset: 0xF962, size: 0x8, addend: 0x0, symName: __ZNSt3__117__compressed_pairIPiNS_9allocatorIiEEE6secondB8ue170006Ev, symObjAddr: 0x4B4C, symBinAddr: 0x1000075B8, symSize: 0x24 }
  - { offsetInCU: 0xF988, offset: 0xF988, size: 0x8, addend: 0x0, symName: __ZNSt3__122__compressed_pair_elemINS_9allocatorIiEELi1ELb1EE5__getB8ue170006Ev, symObjAddr: 0x4B70, symBinAddr: 0x1000075DC, symSize: 0x14 }
  - { offsetInCU: 0xF9AE, offset: 0xF9AE, size: 0x8, addend: 0x0, symName: __ZNKSt3__16vectorIiNS_9allocatorIiEEE9__end_capB8ue170006Ev, symObjAddr: 0x4B84, symBinAddr: 0x1000075F0, symSize: 0x28 }
  - { offsetInCU: 0xF9D4, offset: 0xF9D4, size: 0x8, addend: 0x0, symName: __ZNKSt3__117__compressed_pairIPiNS_9allocatorIiEEE5firstB8ue170006Ev, symObjAddr: 0x4BAC, symBinAddr: 0x100007618, symSize: 0x24 }
  - { offsetInCU: 0xF9FA, offset: 0xF9FA, size: 0x8, addend: 0x0, symName: __ZNKSt3__122__compressed_pair_elemIPiLi0ELb0EE5__getB8ue170006Ev, symObjAddr: 0x4BD0, symBinAddr: 0x10000763C, symSize: 0x14 }
  - { offsetInCU: 0xFA20, offset: 0xFA20, size: 0x8, addend: 0x0, symName: __ZNKSt3__16vectorINS0_IiNS_9allocatorIiEEEENS1_IS3_EEE31__annotate_contiguous_containerB8ue170006EPKvS7_S7_S7_, symObjAddr: 0x4BE4, symBinAddr: 0x100007650, symSize: 0x20 }
  - { offsetInCU: 0xFA72, offset: 0xFA72, size: 0x8, addend: 0x0, symName: __ZNKSt3__16vectorINS0_IiNS_9allocatorIiEEEENS1_IS3_EEE4dataB8ue170006Ev, symObjAddr: 0x4C04, symBinAddr: 0x100007670, symSize: 0x28 }
  - { offsetInCU: 0xFA98, offset: 0xFA98, size: 0x8, addend: 0x0, symName: __ZNKSt3__16vectorINS0_IiNS_9allocatorIiEEEENS1_IS3_EEE4sizeB8ue170006Ev, symObjAddr: 0x4C2C, symBinAddr: 0x100007698, symSize: 0x28 }
  - { offsetInCU: 0xFABE, offset: 0xFABE, size: 0x8, addend: 0x0, symName: __ZNSt3__19allocatorINS_6vectorIiNS0_IiEEEEE10deallocateB8ue170006EPS3_m, symObjAddr: 0x4C54, symBinAddr: 0x1000076C0, symSize: 0x44 }
  - { offsetInCU: 0xFB00, offset: 0xFB00, size: 0x8, addend: 0x0, symName: __ZNSt3__117__compressed_pairIPNS_6vectorIiNS_9allocatorIiEEEENS2_IS4_EEE6secondB8ue170006Ev, symObjAddr: 0x4C98, symBinAddr: 0x100007704, symSize: 0x24 }
  - { offsetInCU: 0xFB26, offset: 0xFB26, size: 0x8, addend: 0x0, symName: __ZNSt3__122__compressed_pair_elemINS_9allocatorINS_6vectorIiNS1_IiEEEEEELi1ELb1EE5__getB8ue170006Ev, symObjAddr: 0x4CBC, symBinAddr: 0x100007728, symSize: 0x14 }
  - { offsetInCU: 0xFB4C, offset: 0xFB4C, size: 0x8, addend: 0x0, symName: __ZNKSt3__16vectorINS0_IiNS_9allocatorIiEEEENS1_IS3_EEE9__end_capB8ue170006Ev, symObjAddr: 0x4CD0, symBinAddr: 0x10000773C, symSize: 0x28 }
  - { offsetInCU: 0xFB72, offset: 0xFB72, size: 0x8, addend: 0x0, symName: __ZNKSt3__117__compressed_pairIPNS_6vectorIiNS_9allocatorIiEEEENS2_IS4_EEE5firstB8ue170006Ev, symObjAddr: 0x4CF8, symBinAddr: 0x100007764, symSize: 0x24 }
  - { offsetInCU: 0xFB98, offset: 0xFB98, size: 0x8, addend: 0x0, symName: __ZNKSt3__122__compressed_pair_elemIPNS_6vectorIiNS_9allocatorIiEEEELi0ELb0EE5__getB8ue170006Ev, symObjAddr: 0x4D1C, symBinAddr: 0x100007788, symSize: 0x14 }
...
